target datalayout = "e-m:e-p270:32:32-p271:32:32-p272:64:64-i64:64-i128:128-f80:128-n8:16:32:64-S128"
target triple = "x86_64-unknown-linux-gnu"

%struct.FlashPartInfo = type { ptr, [6 x i8], i8, i32, i32, i32, i16, i8, ptr }
%struct.Flash = type { %struct.SSIPeripheral, ptr, ptr, i32, i32, i8, [16 x i8], i32, i32, i8, i8, i8, i32, i32, i32, i32, i8, i8, i8, i8, i8, i8, i8, i8, i8, i8, i8, i8, i8, i8, i8, i8, i8, i8, i8, i8, i8, i64, ptr }
%struct.SSIPeripheral = type { %struct.DeviceState, ptr, i8, i8 }
%struct.DeviceState = type { %struct.Object, ptr, ptr, i8, i8, i64, ptr, i32, i8, ptr, %struct.NamedGPIOListHead, %struct.NamedClockListHead, %struct.BusStateHead, i32, i32, i32, %struct.ResettableState, ptr, %struct.MemReentrancyGuard }
%struct.Object = type { ptr, ptr, ptr, i32, ptr }
%struct.NamedGPIOListHead = type { ptr }
%struct.NamedClockListHead = type { ptr }
%struct.BusStateHead = type { ptr }
%struct.ResettableState = type { i32, i8, i8 }
%struct.MemReentrancyGuard = type { i8 }
%struct.timeval = type { i64, i64 }

@.str.139 = private unnamed_addr constant [26 x i8] c"../qemu/hw/block/m25p80.c\00", align 1
@trace_events_enabled_count = external global i32, align 4
@message_with_timestamp = external global i8, align 1
@qemu_loglevel = external global i32, align 4
@.str.162 = private unnamed_addr constant [46 x i8] c"M25P80: die erase is not supported by device\0A\00", align 1
@.str.163 = private unnamed_addr constant [47 x i8] c"M25P80: %d erase size not supported by device\0A\00", align 1
@.str.164 = private unnamed_addr constant [35 x i8] c"M25P80: erase with write protect!\0A\00", align 1
@_TRACE_M25P80_FLASH_ERASE_DSTATE = external global i16, align 2
@.str.165 = private unnamed_addr constant [62 x i8] c"%d@%zu.%06zu:m25p80_flash_erase [%p] offset = 0x%x, len = %u\0A\00", align 1
@.str.166 = private unnamed_addr constant [49 x i8] c"m25p80_flash_erase [%p] offset = 0x%x, len = %u\0A\00", align 1
@.str.167 = private unnamed_addr constant [26 x i8] c"!(len % BDRV_SECTOR_SIZE)\00", align 1
@__PRETTY_FUNCTION__.flash_sync_area = private unnamed_addr constant [48 x i8] c"void flash_sync_area(Flash *, int64_t, int64_t)\00", align 1

; Function Attrs: nounwind sspstrong uwtable
define internal void @_nocheck__trace_m25p80_flash_erase(ptr noundef %s, i32 noundef %offset, i32 noundef %len) #0 {
entry:
  %s.addr = alloca ptr, align 8
  %offset.addr = alloca i32, align 4
  %len.addr = alloca i32, align 4
  %_now = alloca %struct.timeval, align 8
  store ptr %s, ptr %s.addr, align 8
  store i32 %offset, ptr %offset.addr, align 4
  store i32 %len, ptr %len.addr, align 4
  %0 = load i32, ptr @trace_events_enabled_count, align 4
  %tobool = icmp ne i32 %0, 0
  %lnot = xor i1 %tobool, true
  %lnot1 = xor i1 %lnot, true
  %lnot.ext = zext i1 %lnot1 to i32
  %conv = sext i32 %lnot.ext to i64
  %tobool2 = icmp ne i64 %conv, 0
  br i1 %tobool2, label %land.lhs.true, label %if.end11

land.lhs.true:                                    ; preds = %entry
  %1 = load i16, ptr @_TRACE_M25P80_FLASH_ERASE_DSTATE, align 2
  %conv3 = zext i16 %1 to i32
  %tobool4 = icmp ne i32 %conv3, 0
  br i1 %tobool4, label %land.lhs.true5, label %if.end11

land.lhs.true5:                                   ; preds = %land.lhs.true
  %call = call zeroext i1 @qemu_loglevel_mask(i32 noundef 32768)
  br i1 %call, label %if.then, label %if.end11

if.then:                                          ; preds = %land.lhs.true5
  %2 = load i8, ptr @message_with_timestamp, align 1
  %tobool7 = trunc i8 %2 to i1
  br i1 %tobool7, label %if.then8, label %if.else

if.then8:                                         ; preds = %if.then
  %call9 = call i32 @gettimeofday(ptr noundef %_now, ptr noundef null) #7
  %call10 = call i32 @qemu_get_thread_id()
  %tv_sec = getelementptr inbounds %struct.timeval, ptr %_now, i32 0, i32 0
  %3 = load i64, ptr %tv_sec, align 8
  %tv_usec = getelementptr inbounds %struct.timeval, ptr %_now, i32 0, i32 1
  %4 = load i64, ptr %tv_usec, align 8
  %5 = load ptr, ptr %s.addr, align 8
  %6 = load i32, ptr %offset.addr, align 4
  %7 = load i32, ptr %len.addr, align 4
  call void (ptr, ...) @qemu_log(ptr noundef @.str.165, i32 noundef %call10, i64 noundef %3, i64 noundef %4, ptr noundef %5, i32 noundef %6, i32 noundef %7)
  br label %if.end

if.else:                                          ; preds = %if.then
  %8 = load ptr, ptr %s.addr, align 8
  %9 = load i32, ptr %offset.addr, align 4
  %10 = load i32, ptr %len.addr, align 4
  call void (ptr, ...) @qemu_log(ptr noundef @.str.166, ptr noundef %8, i32 noundef %9, i32 noundef %10)
  br label %if.end

if.end:                                           ; preds = %if.else, %if.then8
  br label %if.end11

if.end11:                                         ; preds = %if.end, %land.lhs.true5, %land.lhs.true, %entry
  ret void
}

; Function Attrs: nounwind sspstrong uwtable
define internal void @flash_sync_area(ptr noundef %s, i64 noundef %off, i64 noundef %len) #0 {
entry:
  %s.addr = alloca ptr, align 8
  %off.addr = alloca i64, align 8
  %len.addr = alloca i64, align 8
  %iov = alloca ptr, align 8
  store ptr %s, ptr %s.addr, align 8
  store i64 %off, ptr %off.addr, align 8
  store i64 %len, ptr %len.addr, align 8
  %0 = load ptr, ptr %s.addr, align 8
  %blk = getelementptr inbounds %struct.Flash, ptr %0, i32 0, i32 1
  %1 = load ptr, ptr %blk, align 8
  %tobool = icmp ne ptr %1, null
  br i1 %tobool, label %lor.lhs.false, label %if.then

lor.lhs.false:                                    ; preds = %entry
  %2 = load ptr, ptr %s.addr, align 8
  %blk1 = getelementptr inbounds %struct.Flash, ptr %2, i32 0, i32 1
  %3 = load ptr, ptr %blk1, align 8
  %call = call zeroext i1 @blk_is_writable(ptr noundef %3)
  br i1 %call, label %if.end, label %if.then

if.then:                                          ; preds = %lor.lhs.false, %entry
  br label %return

if.end:                                           ; preds = %lor.lhs.false
  %4 = load i64, ptr %len.addr, align 8
  %rem = urem i64 %4, 512
  %tobool2 = icmp ne i64 %rem, 0
  br i1 %tobool2, label %if.else, label %if.then3

if.then3:                                         ; preds = %if.end
  br label %if.end4

if.else:                                          ; preds = %if.end
  call void @__assert_fail(ptr noundef @.str.167, ptr noundef @.str.139, i32 noundef 574, ptr noundef @__PRETTY_FUNCTION__.flash_sync_area) #6
  unreachable

if.end4:                                          ; preds = %if.then3
  %call5 = call noalias ptr @g_malloc_n(i64 noundef 1, i64 noundef 40) #8
  store ptr %call5, ptr %iov, align 8
  %5 = load ptr, ptr %iov, align 8
  call void @qemu_iovec_init(ptr noundef %5, i32 noundef 1)
  %6 = load ptr, ptr %iov, align 8
  %7 = load ptr, ptr %s.addr, align 8
  %storage = getelementptr inbounds %struct.Flash, ptr %7, i32 0, i32 2
  %8 = load ptr, ptr %storage, align 8
  %9 = load i64, ptr %off.addr, align 8
  %add.ptr = getelementptr i8, ptr %8, i64 %9
  %10 = load i64, ptr %len.addr, align 8
  call void @qemu_iovec_add(ptr noundef %6, ptr noundef %add.ptr, i64 noundef %10)
  %11 = load ptr, ptr %s.addr, align 8
  %blk6 = getelementptr inbounds %struct.Flash, ptr %11, i32 0, i32 1
  %12 = load ptr, ptr %blk6, align 8
  %13 = load i64, ptr %off.addr, align 8
  %14 = load ptr, ptr %iov, align 8
  %15 = load ptr, ptr %iov, align 8
  %call7 = call ptr @blk_aio_pwritev(ptr noundef %12, i64 noundef %13, ptr noundef %14, i32 noundef 0, ptr noundef @blk_sync_complete, ptr noundef %15)
  br label %return

return:                                           ; preds = %if.end4, %if.then
  ret void
}

; Function Attrs: nounwind sspstrong uwtable
define internal void @trace_m25p80_flash_erase(ptr noundef %s, i32 noundef %offset, i32 noundef %len) #0 {
entry:
  %s.addr = alloca ptr, align 8
  %offset.addr = alloca i32, align 4
  %len.addr = alloca i32, align 4
  store ptr %s, ptr %s.addr, align 8
  store i32 %offset, ptr %offset.addr, align 4
  store i32 %len, ptr %len.addr, align 4
  %0 = load ptr, ptr %s.addr, align 8
  %1 = load i32, ptr %offset.addr, align 4
  %2 = load i32, ptr %len.addr, align 4
  call void @_nocheck__trace_m25p80_flash_erase(ptr noundef %0, i32 noundef %1, i32 noundef %2)
  ret void
}

; Function Attrs: nounwind sspstrong uwtable
define internal zeroext i1 @qemu_loglevel_mask(i32 noundef %mask) #0 {
entry:
  %mask.addr = alloca i32, align 4
  store i32 %mask, ptr %mask.addr, align 4
  %0 = load i32, ptr @qemu_loglevel, align 4
  %1 = load i32, ptr %mask.addr, align 4
  %and = and i32 %0, %1
  %cmp = icmp ne i32 %and, 0
  ret i1 %cmp
}

; Function Attrs: nounwind sspstrong uwtable
define internal void @flash_erase(ptr noundef %s, i32 noundef %offset, i32 noundef %cmd) #0 {
entry:
  %s.addr = alloca ptr, align 8
  %offset.addr = alloca i32, align 4
  %cmd.addr = alloca i32, align 4
  %len = alloca i32, align 4
  %capa_to_assert = alloca i8, align 1
  store ptr %s, ptr %s.addr, align 8
  store i32 %offset, ptr %offset.addr, align 4
  store i32 %cmd, ptr %cmd.addr, align 4
  store i8 0, ptr %capa_to_assert, align 1
  %0 = load i32, ptr %cmd.addr, align 4
  switch i32 %0, label %sw.default [
    i32 32, label %sw.bb
    i32 33, label %sw.bb
    i32 82, label %sw.bb1
    i32 92, label %sw.bb1
    i32 216, label %sw.bb2
    i32 220, label %sw.bb2
    i32 199, label %sw.bb3
    i32 196, label %sw.bb4
  ]

sw.bb:                                            ; preds = %entry, %entry
  store i32 4096, ptr %len, align 4
  store i8 1, ptr %capa_to_assert, align 1
  br label %sw.epilog

sw.bb1:                                           ; preds = %entry, %entry
  store i32 32768, ptr %len, align 4
  store i8 2, ptr %capa_to_assert, align 1
  br label %sw.epilog

sw.bb2:                                           ; preds = %entry, %entry
  %1 = load ptr, ptr %s.addr, align 8
  %pi = getelementptr inbounds %struct.Flash, ptr %1, i32 0, i32 38
  %2 = load ptr, ptr %pi, align 8
  %sector_size = getelementptr inbounds %struct.FlashPartInfo, ptr %2, i32 0, i32 3
  %3 = load i32, ptr %sector_size, align 8
  store i32 %3, ptr %len, align 4
  br label %sw.epilog

sw.bb3:                                           ; preds = %entry
  %4 = load ptr, ptr %s.addr, align 8
  %size = getelementptr inbounds %struct.Flash, ptr %4, i32 0, i32 3
  %5 = load i32, ptr %size, align 8
  store i32 %5, ptr %len, align 4
  br label %sw.epilog

sw.bb4:                                           ; preds = %entry
  %6 = load ptr, ptr %s.addr, align 8
  %pi5 = getelementptr inbounds %struct.Flash, ptr %6, i32 0, i32 38
  %7 = load ptr, ptr %pi5, align 8
  %die_cnt = getelementptr inbounds %struct.FlashPartInfo, ptr %7, i32 0, i32 7
  %8 = load i8, ptr %die_cnt, align 2
  %tobool = icmp ne i8 %8, 0
  br i1 %tobool, label %if.then, label %if.else

if.then:                                          ; preds = %sw.bb4
  %9 = load ptr, ptr %s.addr, align 8
  %size6 = getelementptr inbounds %struct.Flash, ptr %9, i32 0, i32 3
  %10 = load i32, ptr %size6, align 8
  %11 = load ptr, ptr %s.addr, align 8
  %pi7 = getelementptr inbounds %struct.Flash, ptr %11, i32 0, i32 38
  %12 = load ptr, ptr %pi7, align 8
  %die_cnt8 = getelementptr inbounds %struct.FlashPartInfo, ptr %12, i32 0, i32 7
  %13 = load i8, ptr %die_cnt8, align 2
  %conv = zext i8 %13 to i32
  %div = udiv i32 %10, %conv
  store i32 %div, ptr %len, align 4
  %14 = load i32, ptr %offset.addr, align 4
  %15 = load i32, ptr %len, align 4
  %sub = sub i32 %15, 1
  %not = xor i32 %sub, -1
  %and = and i32 %14, %not
  store i32 %and, ptr %offset.addr, align 4
  br label %if.end13

if.else:                                          ; preds = %sw.bb4
  br label %do.body

do.body:                                          ; preds = %if.else
  %call = call zeroext i1 @qemu_loglevel_mask(i32 noundef 2048)
  %lnot = xor i1 %call, true
  %lnot9 = xor i1 %lnot, true
  %lnot.ext = zext i1 %lnot9 to i32
  %conv10 = sext i32 %lnot.ext to i64
  %tobool11 = icmp ne i64 %conv10, 0
  br i1 %tobool11, label %if.then12, label %if.end

if.then12:                                        ; preds = %do.body
  call void (ptr, ...) @qemu_log(ptr noundef @.str.162)
  br label %if.end

if.end:                                           ; preds = %if.then12, %do.body
  br label %do.end

do.end:                                           ; preds = %if.end
  br label %return

if.end13:                                         ; preds = %if.then
  br label %sw.epilog

sw.default:                                       ; preds = %entry
  call void @abort() #6
  unreachable

sw.epilog:                                        ; preds = %if.end13, %sw.bb3, %sw.bb2, %sw.bb1, %sw.bb
  %16 = load ptr, ptr %s.addr, align 8
  %17 = load i32, ptr %offset.addr, align 4
  %18 = load i32, ptr %len, align 4
  call void @trace_m25p80_flash_erase(ptr noundef %16, i32 noundef %17, i32 noundef %18)
  %19 = load ptr, ptr %s.addr, align 8
  %pi14 = getelementptr inbounds %struct.Flash, ptr %19, i32 0, i32 38
  %20 = load ptr, ptr %pi14, align 8
  %flags = getelementptr inbounds %struct.FlashPartInfo, ptr %20, i32 0, i32 6
  %21 = load i16, ptr %flags, align 4
  %conv15 = zext i16 %21 to i32
  %22 = load i8, ptr %capa_to_assert, align 1
  %conv16 = zext i8 %22 to i32
  %and17 = and i32 %conv15, %conv16
  %23 = load i8, ptr %capa_to_assert, align 1
  %conv18 = zext i8 %23 to i32
  %cmp = icmp ne i32 %and17, %conv18
  br i1 %cmp, label %if.then20, label %if.end32

if.then20:                                        ; preds = %sw.epilog
  br label %do.body21

do.body21:                                        ; preds = %if.then20
  %call22 = call zeroext i1 @qemu_loglevel_mask(i32 noundef 2048)
  %lnot23 = xor i1 %call22, true
  %lnot25 = xor i1 %lnot23, true
  %lnot.ext26 = zext i1 %lnot25 to i32
  %conv27 = sext i32 %lnot.ext26 to i64
  %tobool28 = icmp ne i64 %conv27, 0
  br i1 %tobool28, label %if.then29, label %if.end30

if.then29:                                        ; preds = %do.body21
  %24 = load i32, ptr %len, align 4
  call void (ptr, ...) @qemu_log(ptr noundef @.str.163, i32 noundef %24)
  br label %if.end30

if.end30:                                         ; preds = %if.then29, %do.body21
  br label %do.end31

do.end31:                                         ; preds = %if.end30
  br label %if.end32

if.end32:                                         ; preds = %do.end31, %sw.epilog
  %25 = load ptr, ptr %s.addr, align 8
  %write_enable = getelementptr inbounds %struct.Flash, ptr %25, i32 0, i32 25
  %26 = load i8, ptr %write_enable, align 1
  %tobool33 = trunc i8 %26 to i1
  br i1 %tobool33, label %if.end46, label %if.then34

if.then34:                                        ; preds = %if.end32
  br label %do.body35

do.body35:                                        ; preds = %if.then34
  %call36 = call zeroext i1 @qemu_loglevel_mask(i32 noundef 2048)
  %lnot37 = xor i1 %call36, true
  %lnot39 = xor i1 %lnot37, true
  %lnot.ext40 = zext i1 %lnot39 to i32
  %conv41 = sext i32 %lnot.ext40 to i64
  %tobool42 = icmp ne i64 %conv41, 0
  br i1 %tobool42, label %if.then43, label %if.end44

if.then43:                                        ; preds = %do.body35
  call void (ptr, ...) @qemu_log(ptr noundef @.str.164)
  br label %if.end44

if.end44:                                         ; preds = %if.then43, %do.body35
  br label %do.end45

do.end45:                                         ; preds = %if.end44
  br label %return

if.end46:                                         ; preds = %if.end32
  %27 = load ptr, ptr %s.addr, align 8
  %storage = getelementptr inbounds %struct.Flash, ptr %27, i32 0, i32 2
  %28 = load ptr, ptr %storage, align 8
  %29 = load i32, ptr %offset.addr, align 4
  %idx.ext = sext i32 %29 to i64
  %add.ptr = getelementptr i8, ptr %28, i64 %idx.ext
  %30 = load i32, ptr %len, align 4
  %conv47 = zext i32 %30 to i64
  call void @llvm.memset.p0.i64(ptr align 1 %add.ptr, i8 -1, i64 %conv47, i1 false)
  %31 = load ptr, ptr %s.addr, align 8
  %32 = load i32, ptr %offset.addr, align 4
  %conv48 = sext i32 %32 to i64
  %33 = load i32, ptr %len, align 4
  %conv49 = zext i32 %33 to i64
  call void @flash_sync_area(ptr noundef %31, i64 noundef %conv48, i64 noundef %conv49)
  br label %return

return:                                           ; preds = %if.end46, %do.end45, %do.end
  ret void
}